target datalayout = "e-m:e-p270:32:32-p271:32:32-p272:64:64-i64:64-i128:128-f80:128-n8:16:32:64-S128"
target triple = "x86_64-pc-linux-gnu"

%"class.llvm::SmallVectorBase" = type { ptr, i32, i32 }
%"class.llvm::TrackingMDRef" = type { ptr }
%"class.llvm::MDAttachments" = type { %"class.llvm::SmallVector.792" }
%"class.llvm::SmallVector.792" = type { %"class.llvm::SmallVectorImpl.793", %"struct.llvm::SmallVectorStorage.796" }
%"class.llvm::SmallVectorImpl.793" = type { %"class.llvm::SmallVectorTemplateBase.794" }
%"class.llvm::SmallVectorTemplateBase.794" = type { %"class.llvm::SmallVectorTemplateCommon.795" }
%"class.llvm::SmallVectorTemplateCommon.795" = type { %"class.llvm::SmallVectorBase" }
%"struct.llvm::SmallVectorStorage.796" = type { [16 x i8] }
%"struct.llvm::MDAttachments::Attachment" = type { i32, %"class.llvm::TypedTrackingMDRef" }
%"class.llvm::TypedTrackingMDRef" = type { %"class.llvm::TrackingMDRef" }
%"struct.std::pair.803" = type { i32, ptr }
%"struct.__gnu_cxx::__ops::_Iter_comp_iter.1217" = type { i8 }

; Function Attrs: mustprogress nounwind uwtable
define linkonce_odr hidden noundef ptr @_ZN4llvm25SmallVectorTemplateCommonISt4pairIjPNS_6MDNodeEEvE3endEv(ptr noundef nonnull align 8 dereferenceable(16) %0) #0 comdat align 2 {
  %2 = alloca ptr, align 8
  store ptr %0, ptr %2, align 8
  %3 = load ptr, ptr %2, align 8
  %4 = call noundef ptr @_ZN4llvm25SmallVectorTemplateCommonISt4pairIjPNS_6MDNodeEEvE5beginEv(ptr noundef nonnull align 8 dereferenceable(16) %3)
  %5 = call noundef i64 @_ZNK4llvm15SmallVectorBaseIjE4sizeEv(ptr noundef nonnull align 8 dereferenceable(16) %3)
  %6 = getelementptr inbounds %"struct.std::pair.803", ptr %4, i64 %5
  ret ptr %6
}

; Function Attrs: mustprogress nounwind uwtable
define linkonce_odr hidden noundef ptr @_ZN4llvm25SmallVectorTemplateCommonISt4pairIjPNS_6MDNodeEEvE5beginEv(ptr noundef nonnull align 8 dereferenceable(16) %0) #0 comdat align 2 {
  %2 = alloca ptr, align 8
  store ptr %0, ptr %2, align 8
  %3 = load ptr, ptr %2, align 8
  %4 = getelementptr inbounds nuw %"class.llvm::SmallVectorBase", ptr %3, i32 0, i32 0
  %5 = load ptr, ptr %4, align 8
  ret ptr %5
}

; Function Attrs: mustprogress nounwind uwtable
define linkonce_odr hidden void @_ZN9__gnu_cxx5__ops15_Iter_comp_iterIN4llvm10less_firstEEC2ES3_(ptr noundef nonnull align 1 dereferenceable(1) %0) unnamed_addr #0 comdat align 2 {
  %2 = alloca ptr, align 8
  store ptr %0, ptr %2, align 8
  ret void
}

; Function Attrs: mustprogress nounwind uwtable
define linkonce_odr noundef ptr @_ZSt3endIN4llvm15SmallVectorImplISt4pairIjPNS0_6MDNodeEEEEEDTcldtfp_3endEERT_(ptr noundef nonnull align 8 dereferenceable(16) %0) #0 comdat {
  %2 = alloca ptr, align 8
  store ptr %0, ptr %2, align 8
  %3 = load ptr, ptr %2, align 8
  %4 = call noundef ptr @_ZN4llvm25SmallVectorTemplateCommonISt4pairIjPNS_6MDNodeEEvE3endEv(ptr noundef nonnull align 8 dereferenceable(16) %3)
  ret ptr %4
}

; Function Attrs: mustprogress nounwind uwtable
define linkonce_odr noundef ptr @_ZSt5beginIN4llvm15SmallVectorImplISt4pairIjPNS0_6MDNodeEEEEEDTcldtfp_5beginEERT_(ptr noundef nonnull align 8 dereferenceable(16) %0) #0 comdat {
  %2 = alloca ptr, align 8
  store ptr %0, ptr %2, align 8
  %3 = load ptr, ptr %2, align 8
  %4 = call noundef ptr @_ZN4llvm25SmallVectorTemplateCommonISt4pairIjPNS_6MDNodeEEvE5beginEv(ptr noundef nonnull align 8 dereferenceable(16) %3)
  ret ptr %4
}

; Function Attrs: mustprogress nounwind uwtable
define linkonce_odr hidden void @_ZN9__gnu_cxx5__ops16__iter_comp_iterIN4llvm10less_firstEEENS0_15_Iter_comp_iterIT_EES5_() #0 comdat {
  %1 = alloca %"struct.__gnu_cxx::__ops::_Iter_comp_iter.1217", align 1
  call void @_ZN9__gnu_cxx5__ops15_Iter_comp_iterIN4llvm10less_firstEEC2ES3_(ptr noundef nonnull align 1 dereferenceable(1) %1)
  ret void
}

; Function Attrs: mustprogress nounwind uwtable
define linkonce_odr hidden noundef ptr @_ZN4llvm10adl_detail8end_implIRNS_15SmallVectorImplISt4pairIjPNS_6MDNodeEEEEEEDTcl3endclsr3stdE7forwardIT_Efp_EEEOS9_(ptr noundef nonnull align 8 dereferenceable(16) %0) #0 comdat {
  %2 = alloca ptr, align 8
  store ptr %0, ptr %2, align 8
  %3 = load ptr, ptr %2, align 8
  %4 = call noundef ptr @_ZSt3endIN4llvm15SmallVectorImplISt4pairIjPNS0_6MDNodeEEEEEDTcldtfp_3endEERT_(ptr noundef nonnull align 8 dereferenceable(16) %3)
  ret ptr %4
}

; Function Attrs: mustprogress nounwind uwtable
define linkonce_odr hidden noundef ptr @_ZN4llvm10adl_detail10begin_implIRNS_15SmallVectorImplISt4pairIjPNS_6MDNodeEEEEEEDTcl5beginclsr3stdE7forwardIT_Efp_EEEOS9_(ptr noundef nonnull align 8 dereferenceable(16) %0) #0 comdat {
  %2 = alloca ptr, align 8
  store ptr %0, ptr %2, align 8
  %3 = load ptr, ptr %2, align 8
  %4 = call noundef ptr @_ZSt5beginIN4llvm15SmallVectorImplISt4pairIjPNS0_6MDNodeEEEEEDTcldtfp_5beginEERT_(ptr noundef nonnull align 8 dereferenceable(16) %3)
  ret ptr %4
}

; Function Attrs: mustprogress nounwind uwtable
define linkonce_odr void @_ZSt11stable_sortIPSt4pairIjPN4llvm6MDNodeEENS1_10less_firstEEvT_S7_T0_(ptr noundef %0, ptr noundef %1) #0 comdat {
  %3 = alloca ptr, align 8
  %4 = alloca ptr, align 8
  store ptr %0, ptr %3, align 8
  store ptr %1, ptr %4, align 8
  %5 = load ptr, ptr %3, align 8
  %6 = load ptr, ptr %4, align 8
  call void @_ZN9__gnu_cxx5__ops16__iter_comp_iterIN4llvm10less_firstEEENS0_15_Iter_comp_iterIT_EES5_()
  call void @_ZSt13__stable_sortIPSt4pairIjPN4llvm6MDNodeEEN9__gnu_cxx5__ops15_Iter_comp_iterINS1_10less_firstEEEEvT_SB_T0_(ptr noundef %5, ptr noundef %6)
  ret void
}

; Function Attrs: mustprogress nounwind uwtable
define linkonce_odr hidden noundef ptr @_ZN4llvm7adl_endIRNS_15SmallVectorImplISt4pairIjPNS_6MDNodeEEEEEEDTclsr10adl_detailE8end_implclsr3stdE7forwardIT_Efp_EEEOS8_(ptr noundef nonnull align 8 dereferenceable(16) %0) #0 comdat {
  %2 = alloca ptr, align 8
  store ptr %0, ptr %2, align 8
  %3 = load ptr, ptr %2, align 8
  %4 = call noundef ptr @_ZN4llvm10adl_detail8end_implIRNS_15SmallVectorImplISt4pairIjPNS_6MDNodeEEEEEEDTcl3endclsr3stdE7forwardIT_Efp_EEEOS9_(ptr noundef nonnull align 8 dereferenceable(16) %3)
  ret ptr %4
}

; Function Attrs: mustprogress nounwind uwtable
define linkonce_odr hidden noundef ptr @_ZN4llvm9adl_beginIRNS_15SmallVectorImplISt4pairIjPNS_6MDNodeEEEEEEDTclsr10adl_detailE10begin_implclsr3stdE7forwardIT_Efp_EEEOS8_(ptr noundef nonnull align 8 dereferenceable(16) %0) #0 comdat {
  %2 = alloca ptr, align 8
  store ptr %0, ptr %2, align 8
  %3 = load ptr, ptr %2, align 8
  %4 = call noundef ptr @_ZN4llvm10adl_detail10begin_implIRNS_15SmallVectorImplISt4pairIjPNS_6MDNodeEEEEEEDTcl5beginclsr3stdE7forwardIT_Efp_EEEOS9_(ptr noundef nonnull align 8 dereferenceable(16) %3)
  ret ptr %4
}

; Function Attrs: mustprogress nounwind uwtable
define linkonce_odr void @_ZN4llvm11stable_sortIRNS_15SmallVectorImplISt4pairIjPNS_6MDNodeEEEENS_10less_firstEEEvOT_T0_(ptr noundef nonnull align 8 dereferenceable(16) %0) #0 comdat {
  %2 = alloca ptr, align 8
  store ptr %0, ptr %2, align 8
  %3 = load ptr, ptr %2, align 8
  %4 = call noundef ptr @_ZN4llvm9adl_beginIRNS_15SmallVectorImplISt4pairIjPNS_6MDNodeEEEEEEDTclsr10adl_detailE10begin_implclsr3stdE7forwardIT_Efp_EEEOS8_(ptr noundef nonnull align 8 dereferenceable(16) %3)
  %5 = load ptr, ptr %2, align 8
  %6 = call noundef ptr @_ZN4llvm7adl_endIRNS_15SmallVectorImplISt4pairIjPNS_6MDNodeEEEEEEDTclsr10adl_detailE8end_implclsr3stdE7forwardIT_Efp_EEEOS8_(ptr noundef nonnull align 8 dereferenceable(16) %5)
  call void @_ZSt11stable_sortIPSt4pairIjPN4llvm6MDNodeEENS1_10less_firstEEvT_S7_T0_(ptr noundef %4, ptr noundef %6)
  ret void
}

; Function Attrs: mustprogress nounwind uwtable
define linkonce_odr hidden noundef ptr @_ZNK4llvm25SmallVectorTemplateCommonINS_13MDAttachments10AttachmentEvE3endEv(ptr noundef nonnull align 8 dereferenceable(16) %0) #0 comdat align 2 {
  %2 = alloca ptr, align 8
  store ptr %0, ptr %2, align 8
  %3 = load ptr, ptr %2, align 8
  %4 = call noundef ptr @_ZNK4llvm25SmallVectorTemplateCommonINS_13MDAttachments10AttachmentEvE5beginEv(ptr noundef nonnull align 8 dereferenceable(16) %3)
  %5 = call noundef i64 @_ZNK4llvm15SmallVectorBaseIjE4sizeEv(ptr noundef nonnull align 8 dereferenceable(16) %3)
  %6 = getelementptr inbounds %"struct.llvm::MDAttachments::Attachment", ptr %4, i64 %5
  ret ptr %6
}

; Function Attrs: mustprogress nounwind uwtable
define linkonce_odr hidden noundef ptr @_ZNK4llvm25SmallVectorTemplateCommonINS_13MDAttachments10AttachmentEvE5beginEv(ptr noundef nonnull align 8 dereferenceable(16) %0) #0 comdat align 2 {
  %2 = alloca ptr, align 8
  store ptr %0, ptr %2, align 8
  %3 = load ptr, ptr %2, align 8
  %4 = getelementptr inbounds nuw %"class.llvm::SmallVectorBase", ptr %3, i32 0, i32 0
  %5 = load ptr, ptr %4, align 8
  ret ptr %5
}

; Function Attrs: mustprogress nounwind uwtable
define dso_local void @_ZNK4llvm13MDAttachments6getAllERNS_15SmallVectorImplISt4pairIjPNS_6MDNodeEEEE(ptr noundef nonnull align 8 dereferenceable(32) %0, ptr noundef nonnull align 8 dereferenceable(16) %1) #0 align 2 {
  %3 = alloca ptr, align 8
  %4 = alloca ptr, align 8
  %5 = alloca ptr, align 8
  %6 = alloca ptr, align 8
  %7 = alloca ptr, align 8
  %8 = alloca ptr, align 8
  store ptr %0, ptr %3, align 8
  store ptr %1, ptr %4, align 8
  %9 = load ptr, ptr %3, align 8
  %10 = getelementptr inbounds nuw %"class.llvm::MDAttachments", ptr %9, i32 0, i32 0
  store ptr %10, ptr %5, align 8
  %11 = load ptr, ptr %5, align 8
  %12 = call noundef ptr @_ZNK4llvm25SmallVectorTemplateCommonINS_13MDAttachments10AttachmentEvE5beginEv(ptr noundef nonnull align 8 dereferenceable(16) %11)
  store ptr %12, ptr %6, align 8
  %13 = load ptr, ptr %5, align 8
  %14 = call noundef ptr @_ZNK4llvm25SmallVectorTemplateCommonINS_13MDAttachments10AttachmentEvE3endEv(ptr noundef nonnull align 8 dereferenceable(16) %13)
  store ptr %14, ptr %7, align 8
  br label %15

15:                                               ; preds = %27, %2
  %16 = load ptr, ptr %6, align 8
  %17 = load ptr, ptr %7, align 8
  %18 = icmp ne ptr %16, %17
  br i1 %18, label %19, label %30

19:                                               ; preds = %15
  %20 = load ptr, ptr %6, align 8
  store ptr %20, ptr %8, align 8
  %21 = load ptr, ptr %4, align 8
  %22 = load ptr, ptr %8, align 8
  %23 = getelementptr inbounds nuw %"struct.llvm::MDAttachments::Attachment", ptr %22, i32 0, i32 0
  %24 = load ptr, ptr %8, align 8
  %25 = getelementptr inbounds nuw %"struct.llvm::MDAttachments::Attachment", ptr %24, i32 0, i32 1
  %26 = call noundef nonnull align 8 dereferenceable(16) ptr @_ZN4llvm15SmallVectorImplISt4pairIjPNS_6MDNodeEEE12emplace_backIJRKjRKNS_18TypedTrackingMDRefIS2_EEEEERS4_DpOT_(ptr noundef nonnull align 8 dereferenceable(16) %21, ptr noundef nonnull align 4 dereferenceable(4) %23, ptr noundef nonnull align 8 dereferenceable(8) %25)
  br label %27

27:                                               ; preds = %19
  %28 = load ptr, ptr %6, align 8
  %29 = getelementptr inbounds %"struct.llvm::MDAttachments::Attachment", ptr %28, i32 1
  store ptr %29, ptr %6, align 8
  br label %15

30:                                               ; preds = %15
  %31 = load ptr, ptr %4, align 8
  %32 = call noundef i64 @_ZNK4llvm15SmallVectorBaseIjE4sizeEv(ptr noundef nonnull align 8 dereferenceable(16) %31)
  %33 = icmp ugt i64 %32, 1
  br i1 %33, label %34, label %36

34:                                               ; preds = %30
  %35 = load ptr, ptr %4, align 8
  call void @_ZN4llvm11stable_sortIRNS_15SmallVectorImplISt4pairIjPNS_6MDNodeEEEENS_10less_firstEEEvOT_T0_(ptr noundef nonnull align 8 dereferenceable(16) %35)
  br label %36

36:                                               ; preds = %34, %30
  ret void
}