; Function Attrs: mustprogress nounwind uwtable
define dso_local void @_ZNK4llvm13MDAttachments6getAllERNS_15SmallVectorImplISt4pairIjPNS_6MDNodeEEEE(ptr noundef nonnull align 8 dereferenceable(32) %0, ptr noundef nonnull align 8 dereferenceable(16) %1) local_unnamed_addr #0 align 2 {
  %3 = load ptr, ptr %0, align 8
  %4 = tail call noundef i64 @_ZNK4llvm15SmallVectorBaseIjE4sizeEv(ptr noundef nonnull align 8 dereferenceable(16) %0) #23
  %5 = getelementptr inbounds %"struct.llvm::MDAttachments::Attachment", ptr %3, i64 %4
  %.not12 = icmp eq i64 %4, 0
  br i1 %.not12, label %._crit_edge, label %.lr.ph

.lr.ph:                                           ; preds = %2, %.lr.ph
  %.013 = phi ptr [ %8, %.lr.ph ], [ %3, %2 ]
  %6 = getelementptr inbounds nuw i8, ptr %.013, i64 8
  %7 = tail call noundef nonnull align 8 dereferenceable(16) ptr @_ZN4llvm15SmallVectorImplISt4pairIjPNS_6MDNodeEEE12emplace_backIJRKjRKNS_18TypedTrackingMDRefIS2_EEEEERS4_DpOT_(ptr noundef nonnull align 8 dereferenceable(16) %1, ptr noundef nonnull align 4 dereferenceable(4) %.013, ptr noundef nonnull align 8 dereferenceable(8) %6)
  %8 = getelementptr inbounds i8, ptr %.013, i64 16
  %.not = icmp eq ptr %8, %5
  br i1 %.not, label %._crit_edge, label %.lr.ph

._crit_edge:                                      ; preds = %.lr.ph, %2
  %9 = tail call noundef i64 @_ZNK4llvm15SmallVectorBaseIjE4sizeEv(ptr noundef nonnull align 8 dereferenceable(16) %1) #23
  %10 = icmp ugt i64 %9, 1
  br i1 %10, label %11, label %15

11:                                               ; preds = %._crit_edge
  %12 = load ptr, ptr %1, align 8
  %13 = tail call noundef i64 @_ZNK4llvm15SmallVectorBaseIjE4sizeEv(ptr noundef nonnull align 8 dereferenceable(16) %1) #23
  %14 = getelementptr inbounds %"struct.std::pair.803", ptr %12, i64 %13
  tail call void @_ZSt13__stable_sortIPSt4pairIjPN4llvm6MDNodeEEN9__gnu_cxx5__ops15_Iter_comp_iterINS1_10less_firstEEEEvT_SB_T0_(ptr noundef %12, ptr noundef %14)
  br label %15

15:                                               ; preds = %11, %._crit_edge
  ret void
}